; Function Attrs: mustprogress uwtable
define internal void @_ZN12_GLOBAL__N_17gpu2gpuERKN2cv11_InputArrayERKNS0_12_OutputArrayE(ptr noundef nonnull align 8 dereferenceable(24) %0, ptr noundef nonnull align 8 dereferenceable(24) %1) #0 personality ptr @__gxx_personality_v0 {
  %3 = alloca %"class.cv::_OutputArray", align 8
  %4 = alloca %"class.cv::cuda::GpuMat", align 8
  call void @llvm.lifetime.start.p0(i64 64, ptr nonnull %4) #11
  call void @_ZNK2cv11_InputArray9getGpuMatEv(ptr dead_on_unwind nonnull writable sret(%"class.cv::cuda::GpuMat") align 8 %4, ptr noundef nonnull align 8 dereferenceable(24) %0)
  %5 = invoke noundef nonnull align 8 dereferenceable(64) ptr @_ZNK2cv12_OutputArray12getGpuMatRefEv(ptr noundef nonnull align 8 dereferenceable(24) %1)
          to label %6 unwind label %13

6:                                                ; preds = %2
  call void @llvm.lifetime.start.p0(i64 24, ptr nonnull %3) #11
  %7 = getelementptr inbounds nuw i8, ptr %3, i64 8
  %8 = getelementptr inbounds nuw i8, ptr %3, i64 16
  store i64 0, ptr %8, align 8
  store i32 34144256, ptr %3, align 8, !tbaa !3
  store ptr %5, ptr %7, align 8, !tbaa !10
  invoke void @_ZNK2cv4cuda6GpuMat6copyToERKNS_12_OutputArrayE(ptr noundef nonnull align 8 dereferenceable(64) %4, ptr noundef nonnull align 8 dereferenceable(24) %3)
          to label %9 unwind label %13

9:                                                ; preds = %6
  call void @llvm.lifetime.end.p0(i64 24, ptr nonnull %3) #11
  invoke void @_ZN2cv4cuda6GpuMat7releaseEv(ptr noundef nonnull align 8 dereferenceable(64) %4)
          to label %_ZN2cv4cuda6GpuMatD2Ev.exit unwind label %10

10:                                               ; preds = %9
  %11 = landingpad { ptr, i32 }
          catch ptr null
  %12 = extractvalue { ptr, i32 } %11, 0
  call void @__clang_call_terminate(ptr %12) #12
  unreachable

_ZN2cv4cuda6GpuMatD2Ev.exit:                      ; preds = %9
  call void @llvm.lifetime.end.p0(i64 64, ptr nonnull %4) #11
  ret void

13:                                               ; preds = %6, %2
  %14 = landingpad { ptr, i32 }
          cleanup
  invoke void @_ZN2cv4cuda6GpuMat7releaseEv(ptr noundef nonnull align 8 dereferenceable(64) %4)
          to label %_ZN2cv4cuda6GpuMatD2Ev.exit3 unwind label %15

15:                                               ; preds = %13
  %16 = landingpad { ptr, i32 }
          catch ptr null
  %17 = extractvalue { ptr, i32 } %16, 0
  call void @__clang_call_terminate(ptr %17) #12
  unreachable

_ZN2cv4cuda6GpuMatD2Ev.exit3:                     ; preds = %13
  call void @llvm.lifetime.end.p0(i64 64, ptr nonnull %4) #11
  resume { ptr, i32 } %14
}